target datalayout = "e-m:e-p270:32:32-p271:32:32-p272:64:64-i64:64-i128:128-f80:128-n8:16:32:64-S128"
target triple = "x86_64-unknown-linux-gnu"

%class.smaller_pattern = type { %class.ptr_vector, %class.svector, %class.obj_pair_hashtable }
%class.ptr_vector = type { %class.vector }
%class.vector = type { ptr }
%class.svector = type { %class.vector.0 }
%class.vector.0 = type { ptr }
%class.obj_pair_hashtable = type { %class.core_hashtable.base, [4 x i8] }
%class.core_hashtable.base = type <{ ptr, i32, i32, i32 }>

; Function Attrs: mustprogress nounwind uwtable
define linkonce_odr hidden noundef i32 @_ZNK6vectorIP4exprLb0EjE8capacityEv(ptr noundef nonnull align 8 dereferenceable(8) %this) #5 comdat align 2 {
entry:
  %retval = alloca i32, align 4
  %this.addr = alloca ptr, align 8
  store ptr %this, ptr %this.addr, align 8
  %this1 = load ptr, ptr %this.addr, align 8
  %m_data = getelementptr inbounds %class.vector, ptr %this1, i32 0, i32 0
  %0 = load ptr, ptr %m_data, align 8
  %cmp = icmp eq ptr %0, null
  br i1 %cmp, label %if.then, label %if.end

if.then:                                          ; preds = %entry
  store i32 0, ptr %retval, align 4
  br label %return

if.end:                                           ; preds = %entry
  %m_data2 = getelementptr inbounds %class.vector, ptr %this1, i32 0, i32 0
  %1 = load ptr, ptr %m_data2, align 8
  %arrayidx = getelementptr inbounds i32, ptr %1, i64 -2
  %2 = load i32, ptr %arrayidx, align 4
  store i32 %2, ptr %retval, align 4
  br label %return

return:                                           ; preds = %if.end, %if.then
  %3 = load i32, ptr %retval, align 4
  ret i32 %3
}

; Function Attrs: mustprogress nounwind uwtable
define linkonce_odr hidden void @_ZN6vectorIP4exprLb0EjE6shrinkEj(ptr noundef nonnull align 8 dereferenceable(8) %this, i32 noundef %s) #5 comdat align 2 {
entry:
  %this.addr = alloca ptr, align 8
  %s.addr = alloca i32, align 4
  store ptr %this, ptr %this.addr, align 8
  store i32 %s, ptr %s.addr, align 4
  %this1 = load ptr, ptr %this.addr, align 8
  %m_data = getelementptr inbounds %class.vector, ptr %this1, i32 0, i32 0
  %0 = load ptr, ptr %m_data, align 8
  %tobool = icmp ne ptr %0, null
  br i1 %tobool, label %if.then, label %if.else

if.then:                                          ; preds = %entry
  %1 = load i32, ptr %s.addr, align 4
  %m_data2 = getelementptr inbounds %class.vector, ptr %this1, i32 0, i32 0
  %2 = load ptr, ptr %m_data2, align 8
  %arrayidx = getelementptr inbounds i32, ptr %2, i64 -1
  store i32 %1, ptr %arrayidx, align 4
  br label %if.end

if.else:                                          ; preds = %entry
  br label %if.end

if.end:                                           ; preds = %if.else, %if.then
  ret void
}

; Function Attrs: mustprogress nounwind uwtable
define linkonce_odr hidden noundef i32 @_ZNK6vectorIP4exprLb0EjE4sizeEv(ptr noundef nonnull align 8 dereferenceable(8) %this) #5 comdat align 2 {
entry:
  %retval = alloca i32, align 4
  %this.addr = alloca ptr, align 8
  store ptr %this, ptr %this.addr, align 8
  %this1 = load ptr, ptr %this.addr, align 8
  %m_data = getelementptr inbounds %class.vector, ptr %this1, i32 0, i32 0
  %0 = load ptr, ptr %m_data, align 8
  %cmp = icmp eq ptr %0, null
  br i1 %cmp, label %if.then, label %if.end

if.then:                                          ; preds = %entry
  store i32 0, ptr %retval, align 4
  br label %return

if.end:                                           ; preds = %entry
  %m_data2 = getelementptr inbounds %class.vector, ptr %this1, i32 0, i32 0
  %1 = load ptr, ptr %m_data2, align 8
  %arrayidx = getelementptr inbounds i32, ptr %1, i64 -1
  %2 = load i32, ptr %arrayidx, align 4
  store i32 %2, ptr %retval, align 4
  br label %return

return:                                           ; preds = %if.end, %if.then
  %3 = load i32, ptr %retval, align 4
  ret i32 %3
}

; Function Attrs: mustprogress nounwind uwtable
define linkonce_odr hidden noundef nonnull align 8 dereferenceable(8) ptr @_ZN6vectorIP4exprLb0EjEixEj(ptr noundef nonnull align 8 dereferenceable(8) %this, i32 noundef %idx) #5 comdat align 2 {
entry:
  %this.addr = alloca ptr, align 8
  %idx.addr = alloca i32, align 4
  store ptr %this, ptr %this.addr, align 8
  store i32 %idx, ptr %idx.addr, align 4
  %this1 = load ptr, ptr %this.addr, align 8
  %m_data = getelementptr inbounds %class.vector, ptr %this1, i32 0, i32 0
  %0 = load ptr, ptr %m_data, align 8
  %1 = load i32, ptr %idx.addr, align 4
  %idxprom = zext i32 %1 to i64
  %arrayidx = getelementptr inbounds ptr, ptr %0, i64 %idxprom
  ret ptr %arrayidx
}

; Function Attrs: mustprogress uwtable
define linkonce_odr hidden void @_ZN6vectorIP4exprLb0EjE6resizeEj(ptr noundef nonnull align 8 dereferenceable(8) %this, i32 noundef %s) #4 comdat align 2 {
entry:
  %this.addr = alloca ptr, align 8
  %s.addr = alloca i32, align 4
  %sz = alloca i32, align 4
  %it = alloca ptr, align 8
  %end = alloca ptr, align 8
  store ptr %this, ptr %this.addr, align 8
  store i32 %s, ptr %s.addr, align 4
  %this1 = load ptr, ptr %this.addr, align 8
  %call = call noundef i32 @_ZNK6vectorIP4exprLb0EjE4sizeEv(ptr noundef nonnull align 8 dereferenceable(8) %this1)
  store i32 %call, ptr %sz, align 4
  %0 = load i32, ptr %s.addr, align 4
  %1 = load i32, ptr %sz, align 4
  %cmp = icmp ule i32 %0, %1
  br i1 %cmp, label %if.then, label %if.end

if.then:                                          ; preds = %entry
  %2 = load i32, ptr %s.addr, align 4
  call void @_ZN6vectorIP4exprLb0EjE6shrinkEj(ptr noundef nonnull align 8 dereferenceable(8) %this1, i32 noundef %2)
  br label %for.end

if.end:                                           ; preds = %entry
  br label %while.cond

while.cond:                                       ; preds = %while.body, %if.end
  %3 = load i32, ptr %s.addr, align 4
  %call2 = call noundef i32 @_ZNK6vectorIP4exprLb0EjE8capacityEv(ptr noundef nonnull align 8 dereferenceable(8) %this1)
  %cmp3 = icmp ugt i32 %3, %call2
  br i1 %cmp3, label %while.body, label %while.end

while.body:                                       ; preds = %while.cond
  call void @_ZN6vectorIP4exprLb0EjE13expand_vectorEv(ptr noundef nonnull align 8 dereferenceable(8) %this1)
  br label %while.cond, !llvm.loop !9

while.end:                                        ; preds = %while.cond
  %4 = load i32, ptr %s.addr, align 4
  %m_data = getelementptr inbounds %class.vector, ptr %this1, i32 0, i32 0
  %5 = load ptr, ptr %m_data, align 8
  %arrayidx = getelementptr inbounds i32, ptr %5, i64 -1
  store i32 %4, ptr %arrayidx, align 4
  %m_data4 = getelementptr inbounds %class.vector, ptr %this1, i32 0, i32 0
  %6 = load ptr, ptr %m_data4, align 8
  %7 = load i32, ptr %sz, align 4
  %idx.ext = zext i32 %7 to i64
  %add.ptr = getelementptr inbounds ptr, ptr %6, i64 %idx.ext
  store ptr %add.ptr, ptr %it, align 8
  %m_data5 = getelementptr inbounds %class.vector, ptr %this1, i32 0, i32 0
  %8 = load ptr, ptr %m_data5, align 8
  %9 = load i32, ptr %s.addr, align 4
  %idx.ext6 = zext i32 %9 to i64
  %add.ptr7 = getelementptr inbounds ptr, ptr %8, i64 %idx.ext6
  store ptr %add.ptr7, ptr %end, align 8
  br label %for.cond

for.cond:                                         ; preds = %for.inc, %while.end
  %10 = load ptr, ptr %it, align 8
  %11 = load ptr, ptr %end, align 8
  %cmp8 = icmp ne ptr %10, %11
  br i1 %cmp8, label %for.body, label %for.end

for.body:                                         ; preds = %for.cond
  %12 = load ptr, ptr %it, align 8
  store ptr null, ptr %12, align 8
  br label %for.inc

for.inc:                                          ; preds = %for.body
  %13 = load ptr, ptr %it, align 8
  %incdec.ptr = getelementptr inbounds ptr, ptr %13, i32 1
  store ptr %incdec.ptr, ptr %it, align 8
  br label %for.cond, !llvm.loop !10

for.end:                                          ; preds = %for.cond, %if.then
  ret void
}

; Function Attrs: mustprogress uwtable
define hidden noundef zeroext i1 @_ZN15smaller_patternclEjP4exprS1_(ptr noundef nonnull align 8 dereferenceable(40) %this, i32 noundef %num_bindings, ptr noundef %p1, ptr noundef %p2) #4 align 2 {
entry:
  %this.addr = alloca ptr, align 8
  %num_bindings.addr = alloca i32, align 4
  %p1.addr = alloca ptr, align 8
  %p2.addr = alloca ptr, align 8
  %i = alloca i32, align 4
  store ptr %this, ptr %this.addr, align 8
  store i32 %num_bindings, ptr %num_bindings.addr, align 4
  store ptr %p1, ptr %p1.addr, align 8
  store ptr %p2, ptr %p2.addr, align 8
  %this1 = load ptr, ptr %this.addr, align 8
  %m_bindings = getelementptr inbounds %class.smaller_pattern, ptr %this1, i32 0, i32 0
  %0 = load i32, ptr %num_bindings.addr, align 4
  call void @_ZN6vectorIP4exprLb0EjE6resizeEj(ptr noundef nonnull align 8 dereferenceable(8) %m_bindings, i32 noundef %0)
  store i32 0, ptr %i, align 4
  br label %for.cond

for.cond:                                         ; preds = %for.inc, %entry
  %1 = load i32, ptr %i, align 4
  %2 = load i32, ptr %num_bindings.addr, align 4
  %cmp = icmp ult i32 %1, %2
  br i1 %cmp, label %for.body, label %for.end

for.body:                                         ; preds = %for.cond
  %m_bindings2 = getelementptr inbounds %class.smaller_pattern, ptr %this1, i32 0, i32 0
  %3 = load i32, ptr %i, align 4
  %call = call noundef nonnull align 8 dereferenceable(8) ptr @_ZN6vectorIP4exprLb0EjEixEj(ptr noundef nonnull align 8 dereferenceable(8) %m_bindings2, i32 noundef %3)
  store ptr null, ptr %call, align 8
  br label %for.inc

for.inc:                                          ; preds = %for.body
  %4 = load i32, ptr %i, align 4
  %inc = add i32 %4, 1
  store i32 %inc, ptr %i, align 4
  br label %for.cond, !llvm.loop !8

for.end:                                          ; preds = %for.cond
  %5 = load ptr, ptr %p1.addr, align 8
  %6 = load ptr, ptr %p2.addr, align 8
  %call3 = call noundef zeroext i1 @_ZN15smaller_pattern7processEP4exprS1_(ptr noundef nonnull align 8 dereferenceable(40) %this1, ptr noundef %5, ptr noundef %6)
  ret i1 %call3
}