; Function Attrs: mustprogress uwtable
define hidden noundef zeroext i1 @_ZN15smaller_patternclEjP4exprS1_(ptr noundef nonnull align 8 dereferenceable(40) %this, i32 noundef %num_bindings, ptr noundef %p1, ptr noundef %p2) local_unnamed_addr #3 align 2 {
entry:
  %0 = load ptr, ptr %this, align 8
  %cmp.i.i = icmp eq ptr %0, null
  br i1 %cmp.i.i, label %_ZNK6vectorIP4exprLb0EjE4sizeEv.exit.i, label %_ZNK6vectorIP4exprLb0EjE4sizeEv.exit.thread.i

_ZNK6vectorIP4exprLb0EjE4sizeEv.exit.i:           ; preds = %entry
  %cmp.not.not.i = icmp eq i32 %num_bindings, 0
  br i1 %cmp.not.not.i, label %for.end, label %while.cond.i.preheader

_ZNK6vectorIP4exprLb0EjE4sizeEv.exit.thread.i:    ; preds = %entry
  %arrayidx.i.i = getelementptr inbounds i8, ptr %0, i64 -4
  %1 = load i32, ptr %arrayidx.i.i, align 4
  %cmp.not15.i = icmp ult i32 %1, %num_bindings
  br i1 %cmp.not15.i, label %while.cond.i.preheader, label %if.then.i.i

while.cond.i.preheader:                           ; preds = %_ZNK6vectorIP4exprLb0EjE4sizeEv.exit.i, %_ZNK6vectorIP4exprLb0EjE4sizeEv.exit.thread.i
  %.ph = phi ptr [ %0, %_ZNK6vectorIP4exprLb0EjE4sizeEv.exit.thread.i ], [ null, %_ZNK6vectorIP4exprLb0EjE4sizeEv.exit.i ]
  %retval.0.i16.i.ph = phi i32 [ %1, %_ZNK6vectorIP4exprLb0EjE4sizeEv.exit.thread.i ], [ 0, %_ZNK6vectorIP4exprLb0EjE4sizeEv.exit.i ]
  br label %while.cond.i

if.then.i.i:                                      ; preds = %_ZNK6vectorIP4exprLb0EjE4sizeEv.exit.thread.i
  store i32 %num_bindings, ptr %arrayidx.i.i, align 4
  br label %_ZN6vectorIP4exprLb0EjE6resizeEj.exit

while.cond.i:                                     ; preds = %while.cond.i.preheader, %while.body.i
  %2 = phi ptr [ %.pr.pre.i, %while.body.i ], [ %.ph, %while.cond.i.preheader ]
  %cmp.i10.i = icmp eq ptr %2, null
  br i1 %cmp.i10.i, label %_ZNK6vectorIP4exprLb0EjE8capacityEv.exit.i, label %if.end.i11.i

if.end.i11.i:                                     ; preds = %while.cond.i
  %arrayidx.i12.i = getelementptr inbounds i8, ptr %2, i64 -8
  %3 = load i32, ptr %arrayidx.i12.i, align 4
  br label %_ZNK6vectorIP4exprLb0EjE8capacityEv.exit.i

_ZNK6vectorIP4exprLb0EjE8capacityEv.exit.i:       ; preds = %if.end.i11.i, %while.cond.i
  %retval.0.i13.i = phi i32 [ %3, %if.end.i11.i ], [ 0, %while.cond.i ]
  %cmp3.i = icmp ult i32 %retval.0.i13.i, %num_bindings
  br i1 %cmp3.i, label %while.body.i, label %while.end.i

while.body.i:                                     ; preds = %_ZNK6vectorIP4exprLb0EjE8capacityEv.exit.i
  tail call void @_ZN6vectorIP4exprLb0EjE13expand_vectorEv(ptr noundef nonnull align 8 dereferenceable(8) %this)
  %.pr.pre.i = load ptr, ptr %this, align 8
  br label %while.cond.i, !llvm.loop !10

while.end.i:                                      ; preds = %_ZNK6vectorIP4exprLb0EjE8capacityEv.exit.i
  %arrayidx.i = getelementptr inbounds i8, ptr %2, i64 -4
  store i32 %num_bindings, ptr %arrayidx.i, align 4
  %cmp8.not17.i = icmp eq i32 %retval.0.i16.i.ph, %num_bindings
  br i1 %cmp8.not17.i, label %_ZN6vectorIP4exprLb0EjE6resizeEj.exit, label %for.body.preheader.i

for.body.preheader.i:                             ; preds = %while.end.i
  %idx.ext6.i = zext i32 %num_bindings to i64
  %4 = load ptr, ptr %this, align 8
  %idx.ext.i = zext i32 %retval.0.i16.i.ph to i64
  %add.ptr.i = getelementptr ptr, ptr %4, i64 %idx.ext.i
  %5 = sub nsw i64 %idx.ext6.i, %idx.ext.i
  %6 = shl nsw i64 %5, 3
  tail call void @llvm.memset.p0.i64(ptr align 8 %add.ptr.i, i8 0, i64 %6, i1 false)
  br label %_ZN6vectorIP4exprLb0EjE6resizeEj.exit

_ZN6vectorIP4exprLb0EjE6resizeEj.exit:            ; preds = %if.then.i.i, %while.end.i, %for.body.preheader.i
  %cmp5.not = icmp eq i32 %num_bindings, 0
  br i1 %cmp5.not, label %for.end, label %for.body.preheader

for.body.preheader:                               ; preds = %_ZN6vectorIP4exprLb0EjE6resizeEj.exit
  %wide.trip.count = zext i32 %num_bindings to i64
  br label %for.body

for.body:                                         ; preds = %for.body.preheader, %for.body
  %indvars.iv = phi i64 [ 0, %for.body.preheader ], [ %indvars.iv.next, %for.body ]
  %7 = load ptr, ptr %this, align 8
  %arrayidx.i4 = getelementptr inbounds ptr, ptr %7, i64 %indvars.iv
  store ptr null, ptr %arrayidx.i4, align 8
  %indvars.iv.next = add nuw nsw i64 %indvars.iv, 1
  %exitcond.not = icmp eq i64 %indvars.iv.next, %wide.trip.count
  br i1 %exitcond.not, label %for.end, label %for.body, !llvm.loop !11

for.end:                                          ; preds = %for.body, %_ZNK6vectorIP4exprLb0EjE4sizeEv.exit.i, %_ZN6vectorIP4exprLb0EjE6resizeEj.exit
  %call3 = tail call noundef zeroext i1 @_ZN15smaller_pattern7processEP4exprS1_(ptr noundef nonnull align 8 dereferenceable(40) %this, ptr noundef %p1, ptr noundef %p2)
  ret i1 %call3
}